; ModuleID = 'source-C-CXX/13/1446.c'
source_filename = "source-C-CXX/13/1446.c"
target datalayout = "e-m:e-p270:32:32-p271:32:32-p272:64:64-i64:64-f80:128-n8:16:32:64-S128"
target triple = "x86_64-pc-linux-gnu"

%struct.anon = type { i32, i32, i32, i32 }

@.str = private unnamed_addr constant [3 x i8] c"%d\00", align 1
@.str.1 = private unnamed_addr constant [7 x i8] c"%d%d%d\00", align 1
@a = dso_local global [100010 x %struct.anon] zeroinitializer, align 16
@t = dso_local local_unnamed_addr global %struct.anon zeroinitializer, align 4
@.str.2 = private unnamed_addr constant [7 x i8] c"%d %d\0A\00", align 1

; Function Attrs: nofree nounwind sspstrong uwtable
define dso_local i32 @main() local_unnamed_addr #0 {
  %1 = alloca i32, align 4
  %2 = bitcast i32* %1 to i8*
  call void @llvm.lifetime.start.p0i8(i64 4, i8* nonnull %2) #4
  %3 = call i32 (i8*, ...) @__isoc99_scanf(i8* getelementptr inbounds ([3 x i8], [3 x i8]* @.str, i64 0, i64 0), i32* nonnull %1)
  %4 = load i32, i32* %1, align 4, !tbaa !5
  %5 = icmp sgt i32 %4, 0
  br i1 %5, label %9, label %72

6:                                                ; preds = %9
  %7 = sext i32 %20 to i64
  %8 = icmp sgt i32 %20, 0
  br i1 %8, label %23, label %72

9:                                                ; preds = %0, %9
  %10 = phi i64 [ %19, %9 ], [ 0, %0 ]
  %11 = getelementptr inbounds [100010 x %struct.anon], [100010 x %struct.anon]* @a, i64 0, i64 %10, i32 0
  %12 = getelementptr inbounds [100010 x %struct.anon], [100010 x %struct.anon]* @a, i64 0, i64 %10, i32 1
  %13 = getelementptr inbounds [100010 x %struct.anon], [100010 x %struct.anon]* @a, i64 0, i64 %10, i32 2
  %14 = call i32 (i8*, ...) @__isoc99_scanf(i8* getelementptr inbounds ([7 x i8], [7 x i8]* @.str.1, i64 0, i64 0), i32* nonnull %11, i32* nonnull %12, i32* nonnull %13)
  %15 = load i32, i32* %12, align 4, !tbaa !9
  %16 = load i32, i32* %13, align 8, !tbaa !11
  %17 = add nsw i32 %16, %15
  %18 = getelementptr inbounds [100010 x %struct.anon], [100010 x %struct.anon]* @a, i64 0, i64 %10, i32 3
  store i32 %17, i32* %18, align 4, !tbaa !12
  %19 = add nuw nsw i64 %10, 1
  %20 = load i32, i32* %1, align 4, !tbaa !5
  %21 = sext i32 %20 to i64
  %22 = icmp slt i64 %19, %21
  br i1 %22, label %9, label %6, !llvm.loop !13

23:                                               ; preds = %6, %36
  %24 = phi i64 [ %25, %36 ], [ %7, %6 ]
  %25 = add nsw i64 %24, -1
  %26 = getelementptr inbounds [100010 x %struct.anon], [100010 x %struct.anon]* @a, i64 0, i64 %24, i32 3
  %27 = load i32, i32* %26, align 4, !tbaa !12
  %28 = getelementptr inbounds [100010 x %struct.anon], [100010 x %struct.anon]* @a, i64 0, i64 %25, i32 3
  %29 = load i32, i32* %28, align 4, !tbaa !12
  %30 = icmp sgt i32 %27, %29
  br i1 %30, label %31, label %36

31:                                               ; preds = %23
  %32 = getelementptr inbounds [100010 x %struct.anon], [100010 x %struct.anon]* @a, i64 0, i64 %25
  %33 = getelementptr inbounds [100010 x %struct.anon], [100010 x %struct.anon]* @a, i64 0, i64 %24
  %34 = bitcast %struct.anon* %32 to i8*
  call void @llvm.memcpy.p0i8.p0i8.i64(i8* noundef nonnull align 4 dereferenceable(16) bitcast (%struct.anon* @t to i8*), i8* noundef nonnull align 16 dereferenceable(16) %34, i64 16, i1 false), !tbaa.struct !15
  %35 = bitcast %struct.anon* %33 to i8*
  call void @llvm.memcpy.p0i8.p0i8.i64(i8* noundef nonnull align 16 dereferenceable(16) %34, i8* noundef nonnull align 16 dereferenceable(16) %35, i64 16, i1 false), !tbaa.struct !15
  call void @llvm.memcpy.p0i8.p0i8.i64(i8* noundef nonnull align 16 dereferenceable(16) %35, i8* noundef nonnull align 4 dereferenceable(16) bitcast (%struct.anon* @t to i8*), i64 16, i1 false), !tbaa.struct !15
  br label %36

36:                                               ; preds = %23, %31
  %37 = icmp sgt i64 %24, 1
  br i1 %37, label %23, label %38, !llvm.loop !16

38:                                               ; preds = %36
  %39 = icmp sgt i32 %20, 1
  br i1 %39, label %40, label %72

40:                                               ; preds = %38, %53
  %41 = phi i64 [ %42, %53 ], [ %7, %38 ]
  %42 = add nsw i64 %41, -1
  %43 = getelementptr inbounds [100010 x %struct.anon], [100010 x %struct.anon]* @a, i64 0, i64 %41, i32 3
  %44 = load i32, i32* %43, align 4, !tbaa !12
  %45 = getelementptr inbounds [100010 x %struct.anon], [100010 x %struct.anon]* @a, i64 0, i64 %42, i32 3
  %46 = load i32, i32* %45, align 4, !tbaa !12
  %47 = icmp sgt i32 %44, %46
  br i1 %47, label %48, label %53

48:                                               ; preds = %40
  %49 = getelementptr inbounds [100010 x %struct.anon], [100010 x %struct.anon]* @a, i64 0, i64 %42
  %50 = getelementptr inbounds [100010 x %struct.anon], [100010 x %struct.anon]* @a, i64 0, i64 %41
  %51 = bitcast %struct.anon* %49 to i8*
  call void @llvm.memcpy.p0i8.p0i8.i64(i8* noundef nonnull align 4 dereferenceable(16) bitcast (%struct.anon* @t to i8*), i8* noundef nonnull align 16 dereferenceable(16) %51, i64 16, i1 false), !tbaa.struct !15
  %52 = bitcast %struct.anon* %50 to i8*
  call void @llvm.memcpy.p0i8.p0i8.i64(i8* noundef nonnull align 16 dereferenceable(16) %51, i8* noundef nonnull align 16 dereferenceable(16) %52, i64 16, i1 false), !tbaa.struct !15
  call void @llvm.memcpy.p0i8.p0i8.i64(i8* noundef nonnull align 16 dereferenceable(16) %52, i8* noundef nonnull align 4 dereferenceable(16) bitcast (%struct.anon* @t to i8*), i64 16, i1 false), !tbaa.struct !15
  br label %53

53:                                               ; preds = %48, %40
  %54 = icmp sgt i64 %41, 2
  br i1 %54, label %40, label %55, !llvm.loop !16

55:                                               ; preds = %53
  %56 = icmp sgt i32 %20, 2
  br i1 %56, label %57, label %72

57:                                               ; preds = %55, %70
  %58 = phi i64 [ %59, %70 ], [ %7, %55 ]
  %59 = add nsw i64 %58, -1
  %60 = getelementptr inbounds [100010 x %struct.anon], [100010 x %struct.anon]* @a, i64 0, i64 %58, i32 3
  %61 = load i32, i32* %60, align 4, !tbaa !12
  %62 = getelementptr inbounds [100010 x %struct.anon], [100010 x %struct.anon]* @a, i64 0, i64 %59, i32 3
  %63 = load i32, i32* %62, align 4, !tbaa !12
  %64 = icmp sgt i32 %61, %63
  br i1 %64, label %65, label %70

65:                                               ; preds = %57
  %66 = getelementptr inbounds [100010 x %struct.anon], [100010 x %struct.anon]* @a, i64 0, i64 %59
  %67 = getelementptr inbounds [100010 x %struct.anon], [100010 x %struct.anon]* @a, i64 0, i64 %58
  %68 = bitcast %struct.anon* %66 to i8*
  call void @llvm.memcpy.p0i8.p0i8.i64(i8* noundef nonnull align 4 dereferenceable(16) bitcast (%struct.anon* @t to i8*), i8* noundef nonnull align 16 dereferenceable(16) %68, i64 16, i1 false), !tbaa.struct !15
  %69 = bitcast %struct.anon* %67 to i8*
  call void @llvm.memcpy.p0i8.p0i8.i64(i8* noundef nonnull align 16 dereferenceable(16) %68, i8* noundef nonnull align 16 dereferenceable(16) %69, i64 16, i1 false), !tbaa.struct !15
  call void @llvm.memcpy.p0i8.p0i8.i64(i8* noundef nonnull align 16 dereferenceable(16) %69, i8* noundef nonnull align 4 dereferenceable(16) bitcast (%struct.anon* @t to i8*), i64 16, i1 false), !tbaa.struct !15
  br label %70

70:                                               ; preds = %65, %57
  %71 = icmp sgt i64 %58, 3
  br i1 %71, label %57, label %72, !llvm.loop !16

72:                                               ; preds = %70, %0, %6, %38, %55
  %73 = load i32, i32* getelementptr inbounds ([100010 x %struct.anon], [100010 x %struct.anon]* @a, i64 0, i64 0, i32 0), align 16, !tbaa !17
  %74 = load i32, i32* getelementptr inbounds ([100010 x %struct.anon], [100010 x %struct.anon]* @a, i64 0, i64 0, i32 3), align 4, !tbaa !12
  %75 = call i32 (i8*, ...) @printf(i8* nonnull dereferenceable(1) getelementptr inbounds ([7 x i8], [7 x i8]* @.str.2, i64 0, i64 0), i32 %73, i32 %74)
  %76 = load i32, i32* getelementptr inbounds ([100010 x %struct.anon], [100010 x %struct.anon]* @a, i64 0, i64 1, i32 0), align 16, !tbaa !17
  %77 = load i32, i32* getelementptr inbounds ([100010 x %struct.anon], [100010 x %struct.anon]* @a, i64 0, i64 1, i32 3), align 4, !tbaa !12
  %78 = call i32 (i8*, ...) @printf(i8* nonnull dereferenceable(1) getelementptr inbounds ([7 x i8], [7 x i8]* @.str.2, i64 0, i64 0), i32 %76, i32 %77)
  %79 = load i32, i32* getelementptr inbounds ([100010 x %struct.anon], [100010 x %struct.anon]* @a, i64 0, i64 2, i32 0), align 16, !tbaa !17
  %80 = load i32, i32* getelementptr inbounds ([100010 x %struct.anon], [100010 x %struct.anon]* @a, i64 0, i64 2, i32 3), align 4, !tbaa !12
  %81 = call i32 (i8*, ...) @printf(i8* nonnull dereferenceable(1) getelementptr inbounds ([7 x i8], [7 x i8]* @.str.2, i64 0, i64 0), i32 %79, i32 %80)
  call void @llvm.lifetime.end.p0i8(i64 4, i8* nonnull %2) #4
  ret i32 0
}

; Function Attrs: argmemonly mustprogress nofree nosync nounwind willreturn
declare void @llvm.lifetime.start.p0i8(i64 immarg, i8* nocapture) #1

; Function Attrs: nofree nounwind
declare noundef i32 @__isoc99_scanf(i8* nocapture noundef readonly, ...) local_unnamed_addr #2

; Function Attrs: argmemonly mustprogress nofree nounwind willreturn
declare void @llvm.memcpy.p0i8.p0i8.i64(i8* noalias nocapture writeonly, i8* noalias nocapture readonly, i64, i1 immarg) #3

; Function Attrs: nofree nounwind
declare noundef i32 @printf(i8* nocapture noundef readonly, ...) local_unnamed_addr #2

; Function Attrs: argmemonly mustprogress nofree nosync nounwind willreturn
declare void @llvm.lifetime.end.p0i8(i64 immarg, i8* nocapture) #1


!llvm.module.flags = !{!0, !1, !2, !3}
!llvm.ident = !{!4}

!0 = !{i32 1, !"wchar_size", i32 4}
!1 = !{i32 7, !"PIC Level", i32 2}
!2 = !{i32 7, !"PIE Level", i32 2}
!3 = !{i32 7, !"uwtable", i32 1}
!4 = !{!"clang version 13.0.0"}
!5 = !{!6, !6, i64 0}
!6 = !{!"int", !7, i64 0}
!7 = !{!"omnipotent char", !8, i64 0}
!8 = !{!"Simple C/C++ TBAA"}
!9 = !{!10, !6, i64 4}
!10 = !{!"", !6, i64 0, !6, i64 4, !6, i64 8, !6, i64 12}
!11 = !{!10, !6, i64 8}
!12 = !{!10, !6, i64 12}
!13 = distinct !{!13, !14}
!14 = !{!"llvm.loop.mustprogress"}
!15 = !{i64 0, i64 4, !5, i64 4, i64 4, !5, i64 8, i64 4, !5, i64 12, i64 4, !5}
!16 = distinct !{!16, !14}
!17 = !{!10, !6, i64 0}
